(imatplotlib.font_manager
FontManager
p1
(dp2
S'afm_lookup_cache'
p3
(dp4
sS'ttflist'
p5
(lp6
ccopy_reg
_reconstructor
p7
(cmatplotlib.font_manager
FontEntry
p8
c__builtin__
object
p9
NtRp10
(dp11
S'style'
p12
S'oblique'
p13
sS'name'
p14
S'Bitstream Vera Sans'
p15
sS'weight'
p16
I400
sS'stretch'
p17
S'normal'
p18
sS'variant'
p19
g18
sS'fname'
p20
S'/util/python-2.7.3/lib/python2.7/site-packages/matplotlib/mpl-data/fonts/ttf/VeraIt.ttf'
p21
sS'size'
p22
S'scalable'
p23
sbag7
(g8
g9
NtRp24
(dp25
g12
g18
sg14
S'STIXSizeFourSym'
p26
sg16
I400
sg17
g18
sg19
g18
sg20
S'/util/python-2.7.3/lib/python2.7/site-packages/matplotlib/mpl-data/fonts/ttf/STIXSizFourSymReg.ttf'
p27
sg22
g23
sbag7
(g8
g9
NtRp28
(dp29
g12
g18
sg14
S'cmmi10'
p30
sg16
I400
sg17
g18
sg19
g18
sg20
S'/util/python-2.7.3/lib/python2.7/site-packages/matplotlib/mpl-data/fonts/ttf/cmmi10.ttf'
p31
sg22
g23
sbag7
(g8
g9
NtRp32
(dp33
g12
g18
sg14
S'STIXSizeThreeSym'
p34
sg16
I700
sg17
g18
sg19
g18
sg20
S'/util/python-2.7.3/lib/python2.7/site-packages/matplotlib/mpl-data/fonts/ttf/STIXSizThreeSymBol.ttf'
p35
sg22
g23
sbag7
(g8
g9
NtRp36
(dp37
g12
g18
sg14
S'STIXSizeOneSym'
p38
sg16
I400
sg17
g18
sg19
g18
sg20
S'/util/python-2.7.3/lib/python2.7/site-packages/matplotlib/mpl-data/fonts/ttf/STIXSizOneSymReg.ttf'
p39
sg22
g23
sbag7
(g8
g9
NtRp40
(dp41
g12
g18
sg14
S'STIXSizeOneSym'
p42
sg16
I700
sg17
g18
sg19
g18
sg20
S'/util/python-2.7.3/lib/python2.7/site-packages/matplotlib/mpl-data/fonts/ttf/STIXSizOneSymBol.ttf'
p43
sg22
g23
sbag7
(g8
g9
NtRp44
(dp45
g12
S'italic'
p46
sg14
S'STIXGeneral'
p47
sg16
I400
sg17
g18
sg19
g18
sg20
S'/util/python-2.7.3/lib/python2.7/site-packages/matplotlib/mpl-data/fonts/ttf/STIXGeneralItalic.ttf'
p48
sg22
g23
sbag7
(g8
g9
NtRp49
(dp50
g12
g18
sg14
S'Bitstream Vera Sans'
p51
sg16
I700
sg17
g18
sg19
g18
sg20
S'/util/python-2.7.3/lib/python2.7/site-packages/matplotlib/mpl-data/fonts/ttf/VeraBd.ttf'
p52
sg22
g23
sbag7
(g8
g9
NtRp53
(dp54
g12
g46
sg14
S'STIXGeneral'
p55
sg16
I700
sg17
g18
sg19
g18
sg20
S'/util/python-2.7.3/lib/python2.7/site-packages/matplotlib/mpl-data/fonts/ttf/STIXGeneralBolIta.ttf'
p56
sg22
g23
sbag7
(g8
g9
NtRp57
(dp58
g12
g18
sg14
S'STIXSizeFourSym'
p59
sg16
I700
sg17
g18
sg19
g18
sg20
S'/util/python-2.7.3/lib/python2.7/site-packages/matplotlib/mpl-data/fonts/ttf/STIXSizFourSymBol.ttf'
p60
sg22
g23
sbag7
(g8
g9
NtRp61
(dp62
g12
g18
sg14
S'cmb10'
p63
sg16
I400
sg17
g18
sg19
g18
sg20
S'/util/python-2.7.3/lib/python2.7/site-packages/matplotlib/mpl-data/fonts/ttf/cmb10.ttf'
p64
sg22
g23
sbag7
(g8
g9
NtRp65
(dp66
g12
g18
sg14
S'cmsy10'
p67
sg16
I400
sg17
g18
sg19
g18
sg20
S'/util/python-2.7.3/lib/python2.7/site-packages/matplotlib/mpl-data/fonts/ttf/cmsy10.ttf'
p68
sg22
g23
sbag7
(g8
g9
NtRp69
(dp70
g12
g18
sg14
S'STIXSizeTwoSym'
p71
sg16
I400
sg17
g18
sg19
g18
sg20
S'/util/python-2.7.3/lib/python2.7/site-packages/matplotlib/mpl-data/fonts/ttf/STIXSizTwoSymReg.ttf'
p72
sg22
g23
sbag7
(g8
g9
NtRp73
(dp74
g12
g18
sg14
S'STIXSizeFiveSym'
p75
sg16
I400
sg17
g18
sg19
g18
sg20
S'/util/python-2.7.3/lib/python2.7/site-packages/matplotlib/mpl-data/fonts/ttf/STIXSizFiveSymReg.ttf'
p76
sg22
g23
sbag7
(g8
g9
NtRp77
(dp78
g12
g18
sg14
S'Bitstream Vera Serif'
p79
sg16
I700
sg17
g18
sg19
g18
sg20
S'/util/python-2.7.3/lib/python2.7/site-packages/matplotlib/mpl-data/fonts/ttf/VeraSeBd.ttf'
p80
sg22
g23
sbag7
(g8
g9
NtRp81
(dp82
g12
g18
sg14
S'cmr10'
p83
sg16
I400
sg17
g18
sg19
g18
sg20
S'/util/python-2.7.3/lib/python2.7/site-packages/matplotlib/mpl-data/fonts/ttf/cmr10.ttf'
p84
sg22
g23
sbag7
(g8
g9
NtRp85
(dp86
g12
g18
sg14
S'Bitstream Vera Serif'
p87
sg16
I400
sg17
g18
sg19
g18
sg20
S'/util/python-2.7.3/lib/python2.7/site-packages/matplotlib/mpl-data/fonts/ttf/VeraSe.ttf'
p88
sg22
g23
sbag7
(g8
g9
NtRp89
(dp90
g12
g18
sg14
S'STIXGeneral'
p91
sg16
I700
sg17
g18
sg19
g18
sg20
S'/util/python-2.7.3/lib/python2.7/site-packages/matplotlib/mpl-data/fonts/ttf/STIXGeneralBol.ttf'
p92
sg22
g23
sbag7
(g8
g9
NtRp93
(dp94
g12
g18
sg14
S'cmex10'
p95
sg16
I400
sg17
g18
sg19
g18
sg20
S'/util/python-2.7.3/lib/python2.7/site-packages/matplotlib/mpl-data/fonts/ttf/cmex10.ttf'
p96
sg22
g23
sbag7
(g8
g9
NtRp97
(dp98
g12
g13
sg14
S'Bitstream Vera Sans'
p99
sg16
I700
sg17
g18
sg19
g18
sg20
S'/util/python-2.7.3/lib/python2.7/site-packages/matplotlib/mpl-data/fonts/ttf/VeraBI.ttf'
p100
sg22
g23
sbag7
(g8
g9
NtRp101
(dp102
g12
g18
sg14
S'STIXGeneral'
p103
sg16
I400
sg17
g18
sg19
g18
sg20
S'/util/python-2.7.3/lib/python2.7/site-packages/matplotlib/mpl-data/fonts/ttf/STIXGeneral.ttf'
p104
sg22
g23
sbag7
(g8
g9
NtRp105
(dp106
g12
g18
sg14
S'STIXSizeTwoSym'
p107
sg16
I700
sg17
g18
sg19
g18
sg20
S'/util/python-2.7.3/lib/python2.7/site-packages/matplotlib/mpl-data/fonts/ttf/STIXSizTwoSymBol.ttf'
p108
sg22
g23
sbag7
(g8
g9
NtRp109
(dp110
g12
g18
sg14
S'Bitstream Vera Sans'
p111
sg16
I400
sg17
g18
sg19
g18
sg20
S'/util/python-2.7.3/lib/python2.7/site-packages/matplotlib/mpl-data/fonts/ttf/Vera.ttf'
p112
sg22
g23
sbag7
(g8
g9
NtRp113
(dp114
g12
g18
sg14
S'STIXNonUnicode'
p115
sg16
I700
sg17
g18
sg19
g18
sg20
S'/util/python-2.7.3/lib/python2.7/site-packages/matplotlib/mpl-data/fonts/ttf/STIXNonUniBol.ttf'
p116
sg22
g23
sbag7
(g8
g9
NtRp117
(dp118
g12
g18
sg14
S'cmss10'
p119
sg16
I400
sg17
g18
sg19
g18
sg20
S'/util/python-2.7.3/lib/python2.7/site-packages/matplotlib/mpl-data/fonts/ttf/cmss10.ttf'
p120
sg22
g23
sbag7
(g8
g9
NtRp121
(dp122
g12
g18
sg14
S'Bitstream Vera Sans Mono'
p123
sg16
I700
sg17
g18
sg19
g18
sg20
S'/util/python-2.7.3/lib/python2.7/site-packages/matplotlib/mpl-data/fonts/ttf/VeraMoBd.ttf'
p124
sg22
g23
sbag7
(g8
g9
NtRp125
(dp126
g12
g46
sg14
S'STIXNonUnicode'
p127
sg16
I700
sg17
g18
sg19
g18
sg20
S'/util/python-2.7.3/lib/python2.7/site-packages/matplotlib/mpl-data/fonts/ttf/STIXNonUniBolIta.ttf'
p128
sg22
g23
sbag7
(g8
g9
NtRp129
(dp130
g12
g13
sg14
S'Bitstream Vera Sans Mono'
p131
sg16
I700
sg17
g18
sg19
g18
sg20
S'/util/python-2.7.3/lib/python2.7/site-packages/matplotlib/mpl-data/fonts/ttf/VeraMoBI.ttf'
p132
sg22
g23
sbag7
(g8
g9
NtRp133
(dp134
g12
g13
sg14
S'Bitstream Vera Sans Mono'
p135
sg16
I400
sg17
g18
sg19
g18
sg20
S'/util/python-2.7.3/lib/python2.7/site-packages/matplotlib/mpl-data/fonts/ttf/VeraMoIt.ttf'
p136
sg22
g23
sbag7
(g8
g9
NtRp137
(dp138
g12
g18
sg14
S'STIXNonUnicode'
p139
sg16
I400
sg17
g18
sg19
g18
sg20
S'/util/python-2.7.3/lib/python2.7/site-packages/matplotlib/mpl-data/fonts/ttf/STIXNonUni.ttf'
p140
sg22
g23
sbag7
(g8
g9
NtRp141
(dp142
g12
g18
sg14
S'cmtt10'
p143
sg16
I400
sg17
g18
sg19
g18
sg20
S'/util/python-2.7.3/lib/python2.7/site-packages/matplotlib/mpl-data/fonts/ttf/cmtt10.ttf'
p144
sg22
g23
sbag7
(g8
g9
NtRp145
(dp146
g12
g46
sg14
S'STIXNonUnicode'
p147
sg16
I400
sg17
g18
sg19
g18
sg20
S'/util/python-2.7.3/lib/python2.7/site-packages/matplotlib/mpl-data/fonts/ttf/STIXNonUniIta.ttf'
p148
sg22
g23
sbag7
(g8
g9
NtRp149
(dp150
g12
g18
sg14
S'STIXSizeThreeSym'
p151
sg16
I400
sg17
g18
sg19
g18
sg20
S'/util/python-2.7.3/lib/python2.7/site-packages/matplotlib/mpl-data/fonts/ttf/STIXSizThreeSymReg.ttf'
p152
sg22
g23
sbag7
(g8
g9
NtRp153
(dp154
g12
g18
sg14
S'Bitstream Vera Sans Mono'
p155
sg16
I400
sg17
g18
sg19
g18
sg20
S'/util/python-2.7.3/lib/python2.7/site-packages/matplotlib/mpl-data/fonts/ttf/VeraMono.ttf'
p156
sg22
g23
sbag7
(g8
g9
NtRp157
(dp158
g12
g13
sg14
S'Waree'
p159
sg16
I400
sg17
g18
sg19
g18
sg20
S'/usr/share/fonts/thai-scalable/Waree-Oblique.ttf'
p160
sg22
g23
sbag7
(g8
g9
NtRp161
(dp162
g12
g18
sg14
S'Khmer OS'
p163
sg16
I400
sg17
g18
sg19
g18
sg20
S'/usr/share/fonts/khmeros/KhmerOS.ttf'
p164
sg22
g23
sbag7
(g8
g9
NtRp165
(dp166
g12
g46
sg14
S'Liberation Sans'
p167
sg16
I400
sg17
g18
sg19
g18
sg20
S'/usr/share/fonts/liberation/LiberationSans-Italic.ttf'
p168
sg22
g23
sbag7
(g8
g9
NtRp169
(dp170
g12
g18
sg14
S'STIXGeneral'
p171
sg16
I400
sg17
g18
sg19
g18
sg20
S'/usr/share/fonts/stix/STIXGeneral.otf'
p172
sg22
g23
sbag7
(g8
g9
NtRp173
(dp174
g12
g18
sg14
S'Meera'
p175
sg16
I400
sg17
g18
sg19
g18
sg20
S'/usr/share/fonts/smc/Meera.ttf'
p176
sg22
g23
sbag7
(g8
g9
NtRp177
(dp178
g12
g46
sg14
S'STIXGeneral'
p179
sg16
I400
sg17
g18
sg19
g18
sg20
S'/usr/share/fonts/stix/STIXGeneralItalic.otf'
p180
sg22
g23
sbag7
(g8
g9
NtRp181
(dp182
g12
g18
sg14
S'PakTypeNaqsh'
p183
sg16
I400
sg17
g18
sg19
g18
sg20
S'/usr/share/fonts/paktype/PakTypeNaqsh.ttf'
p184
sg22
g23
sbag7
(g8
g9
NtRp185
(dp186
g12
g18
sg14
S'Liberation Serif'
p187
sg16
I400
sg17
g18
sg19
g18
sg20
S'/usr/share/fonts/liberation/LiberationSerif-Regular.ttf'
p188
sg22
g23
sbag7
(g8
g9
NtRp189
(dp190
g12
g18
sg14
S'Carlito'
p191
sg16
I400
sg17
g18
sg19
g18
sg20
S'/usr/share/fonts/google-crosextra-carlito/Carlito-Regular.ttf'
p192
sg22
g23
sbag7
(g8
g9
NtRp193
(dp194
g12
g18
sg14
S'STIXGeneral'
p195
sg16
I700
sg17
g18
sg19
g18
sg20
S'/usr/share/fonts/stix/STIXGeneralBol.otf'
p196
sg22
g23
sbag7
(g8
g9
NtRp197
(dp198
g12
g18
sg14
S'Liberation Mono'
p199
sg16
I400
sg17
g18
sg19
g18
sg20
S'/usr/share/fonts/liberation/LiberationMono-Regular.ttf'
p200
sg22
g23
sbag7
(g8
g9
NtRp201
(dp202
g12
g46
sg14
S'DejaVu Serif'
p203
sg16
I700
sg17
S'condensed'
p204
sg19
g18
sg20
S'/usr/share/fonts/dejavu/DejaVuSerifCondensed-BoldItalic.ttf'
p205
sg22
g23
sbag7
(g8
g9
NtRp206
(dp207
g12
g18
sg14
S'DejaVu Serif'
p208
sg16
I400
sg17
g204
sg19
g18
sg20
S'/usr/share/fonts/dejavu/DejaVuSerifCondensed.ttf'
p209
sg22
g23
sbag7
(g8
g9
NtRp210
(dp211
g12
g46
sg14
S'STIXGeneral'
p212
sg16
I700
sg17
g18
sg19
g18
sg20
S'/usr/share/fonts/stix/STIXGeneralBolIta.otf'
p213
sg22
g23
sbag7
(g8
g9
NtRp214
(dp215
g12
g18
sg14
S'Liberation Sans'
p216
sg16
I400
sg17
g18
sg19
g18
sg20
S'/usr/share/fonts/liberation/LiberationSans-Regular.ttf'
p217
sg22
g23
sbag7
(g8
g9
NtRp218
(dp219
g12
g18
sg14
S'DejaVu Serif'
p220
sg16
I400
sg17
g18
sg19
g18
sg20
S'/usr/share/fonts/dejavu/DejaVuSerif.ttf'
p221
sg22
g23
sbag7
(g8
g9
NtRp222
(dp223
g12
g18
sg14
S'Liberation Sans'
p224
sg16
I700
sg17
g18
sg19
g18
sg20
S'/usr/share/fonts/liberation/LiberationSans-Bold.ttf'
p225
sg22
g23
sbag7
(g8
g9
NtRp226
(dp227
g12
g18
sg14
S'Liberation Serif'
p228
sg16
I700
sg17
g18
sg19
g18
sg20
S'/usr/share/fonts/liberation/LiberationSerif-Bold.ttf'
p229
sg22
g23
sbag7
(g8
g9
NtRp230
(dp231
g12
g46
sg14
S'Caladea'
p232
sg16
I700
sg17
g18
sg19
g18
sg20
S'/usr/share/fonts/google-crosextra-caladea/Caladea-BoldItalic.ttf'
p233
sg22
g23
sbag7
(g8
g9
NtRp234
(dp235
g12
g18
sg14
S'Lohit Gujarati'
p236
sg16
I400
sg17
g18
sg19
g18
sg20
S'/usr/share/fonts/lohit-gujarati/Lohit-Gujarati.ttf'
p237
sg22
g23
sbag7
(g8
g9
NtRp238
(dp239
g12
g18
sg14
S'DejaVu Serif'
p240
sg16
I700
sg17
g18
sg19
g18
sg20
S'/usr/share/fonts/dejavu/DejaVuSerif-Bold.ttf'
p241
sg22
g23
sbag7
(g8
g9
NtRp242
(dp243
g12
g46
sg14
S'Liberation Serif'
p244
sg16
I400
sg17
g18
sg19
g18
sg20
S'/usr/share/fonts/liberation/LiberationSerif-Italic.ttf'
p245
sg22
g23
sbag7
(g8
g9
NtRp246
(dp247
g12
g46
sg14
S'DejaVu Serif'
p248
sg16
I400
sg17
g204
sg19
g18
sg20
S'/usr/share/fonts/dejavu/DejaVuSerifCondensed-Italic.ttf'
p249
sg22
g23
sbag7
(g8
g9
NtRp250
(dp251
g12
g18
sg14
S'Abyssinica SIL'
p252
sg16
I400
sg17
g18
sg19
g18
sg20
S'/usr/share/fonts/abyssinica/Abyssinica_SIL.ttf'
p253
sg22
g23
sbag7
(g8
g9
NtRp254
(dp255
g12
g13
sg14
S'Waree'
p256
sg16
I700
sg17
g18
sg19
g18
sg20
S'/usr/share/fonts/thai-scalable/Waree-BoldOblique.ttf'
p257
sg22
g23
sbag7
(g8
g9
NtRp258
(dp259
g12
g18
sg14
S'DejaVu Sans'
p260
sg16
I700
sg17
g204
sg19
g18
sg20
S'/usr/share/fonts/dejavu/DejaVuSansCondensed-Bold.ttf'
p261
sg22
g23
sbag7
(g8
g9
NtRp262
(dp263
g12
g18
sg14
S'UnDotum'
p264
sg16
I400
sg17
g18
sg19
g18
sg20
S'/usr/share/fonts/un-core/UnDotum.ttf'
p265
sg22
g23
sbag7
(g8
g9
NtRp266
(dp267
g12
g18
sg14
S'UnDotum'
p268
sg16
I700
sg17
g18
sg19
g18
sg20
S'/usr/share/fonts/un-core/UnDotumBold.ttf'
p269
sg22
g23
sbag7
(g8
g9
NtRp270
(dp271
g12
g18
sg14
S'PakTypeTehreer'
p272
sg16
I400
sg17
g18
sg19
g18
sg20
S'/usr/share/fonts/paktype/PakTypeTehreer.ttf'
p273
sg22
g23
sbag7
(g8
g9
NtRp274
(dp275
g12
g13
sg14
S'DejaVu Sans Mono'
p276
sg16
I400
sg17
g18
sg19
g18
sg20
S'/usr/share/fonts/dejavu/DejaVuSansMono-Oblique.ttf'
p277
sg22
g23
sbag7
(g8
g9
NtRp278
(dp279
g12
g18
sg14
S'Lohit Kannada'
p280
sg16
I400
sg17
g18
sg19
g18
sg20
S'/usr/share/fonts/lohit-kannada/Lohit-Kannada.ttf'
p281
sg22
g23
sbag7
(g8
g9
NtRp282
(dp283
g12
g13
sg14
S'DejaVu Sans'
p284
sg16
I700
sg17
g18
sg19
g18
sg20
S'/usr/share/fonts/dejavu/DejaVuSans-BoldOblique.ttf'
p285
sg22
g23
sbag7
(g8
g9
NtRp286
(dp287
g12
g18
sg14
S'DejaVu Sans'
p288
sg16
I700
sg17
g18
sg19
g18
sg20
S'/usr/share/fonts/dejavu/DejaVuSans-Bold.ttf'
p289
sg22
g23
sbag7
(g8
g9
NtRp290
(dp291
g12
g18
sg14
S'Jomolhari'
p292
sg16
I400
sg17
g18
sg19
g18
sg20
S'/usr/share/fonts/jomolhari/Jomolhari-alpha3c-0605331.ttf'
p293
sg22
g23
sbag7
(g8
g9
NtRp294
(dp295
g12
g18
sg14
S'Unikurd Web'
p296
sg16
I400
sg17
g18
sg19
g18
sg20
S'/usr/share/fonts/kurdit-unikurd-web/Unikuweb.ttf'
p297
sg22
g23
sbag7
(g8
g9
NtRp298
(dp299
g12
g13
sg14
S'DejaVu Sans'
p300
sg16
I400
sg17
g18
sg19
g18
sg20
S'/usr/share/fonts/dejavu/DejaVuSans-Oblique.ttf'
p301
sg22
g23
sbag7
(g8
g9
NtRp302
(dp303
g12
g18
sg14
S'Padauk'
p304
sg16
I400
sg17
g18
sg19
g18
sg20
S'/usr/share/fonts/sil-padauk/Padauk.ttf'
p305
sg22
g23
sbag7
(g8
g9
NtRp306
(dp307
g12
g18
sg14
S'DejaVu Sans'
p308
sg16
I400
sg17
g18
sg19
g18
sg20
S'/usr/share/fonts/dejavu/DejaVuSans.ttf'
p309
sg22
g23
sbag7
(g8
g9
NtRp310
(dp311
g12
g18
sg14
S'Tibetan Machine Uni'
p312
sg16
I400
sg17
g18
sg19
g18
sg20
S'/usr/share/fonts/tibetan-machine-uni/TibMachUni-1.901b.ttf'
p313
sg22
g23
sbag7
(g8
g9
NtRp314
(dp315
g12
g18
sg14
S'Lohit Punjabi'
p316
sg16
I400
sg17
g18
sg19
g18
sg20
S'/usr/share/fonts/lohit-punjabi/Lohit-Punjabi.ttf'
p317
sg22
g23
sbag7
(g8
g9
NtRp318
(dp319
g12
g18
sg14
S'Lohit Telugu'
p320
sg16
I400
sg17
g18
sg19
g18
sg20
S'/usr/share/fonts/lohit-telugu/Lohit-Telugu.ttf'
p321
sg22
g23
sbag7
(g8
g9
NtRp322
(dp323
g12
g46
sg14
S'Carlito'
p324
sg16
I400
sg17
g18
sg19
g18
sg20
S'/usr/share/fonts/google-crosextra-carlito/Carlito-Italic.ttf'
p325
sg22
g23
sbag7
(g8
g9
NtRp326
(dp327
g12
g18
sg14
S'LKLUG'
p328
sg16
I400
sg17
g18
sg19
g18
sg20
S'/usr/share/fonts/lklug/lklug.ttf'
p329
sg22
g23
sbag7
(g8
g9
NtRp330
(dp331
g12
g46
sg14
S'Liberation Sans'
p332
sg16
I700
sg17
g18
sg19
g18
sg20
S'/usr/share/fonts/liberation/LiberationSans-BoldItalic.ttf'
p333
sg22
g23
sbag7
(g8
g9
NtRp334
(dp335
g12
g18
sg14
S'DejaVu Sans'
p336
sg16
I400
sg17
g204
sg19
g18
sg20
S'/usr/share/fonts/dejavu/DejaVuSansCondensed.ttf'
p337
sg22
g23
sbag7
(g8
g9
NtRp338
(dp339
g12
g18
sg14
S'Waree'
p340
sg16
I400
sg17
g18
sg19
g18
sg20
S'/usr/share/fonts/thai-scalable/Waree.ttf'
p341
sg22
g23
sbag7
(g8
g9
NtRp342
(dp343
g12
g13
sg14
S'DejaVu Sans Mono'
p344
sg16
I700
sg17
g18
sg19
g18
sg20
S'/usr/share/fonts/dejavu/DejaVuSansMono-BoldOblique.ttf'
p345
sg22
g23
sbag7
(g8
g9
NtRp346
(dp347
g12
g18
sg14
S'Caladea'
p348
sg16
I400
sg17
g18
sg19
g18
sg20
S'/usr/share/fonts/google-crosextra-caladea/Caladea-Regular.ttf'
p349
sg22
g23
sbag7
(g8
g9
NtRp350
(dp351
g12
g18
sg14
S'Caladea'
p352
sg16
I700
sg17
g18
sg19
g18
sg20
S'/usr/share/fonts/google-crosextra-caladea/Caladea-Bold.ttf'
p353
sg22
g23
sbag7
(g8
g9
NtRp354
(dp355
g12
g18
sg14
S'Carlito'
p356
sg16
I700
sg17
g18
sg19
g18
sg20
S'/usr/share/fonts/google-crosextra-carlito/Carlito-Bold.ttf'
p357
sg22
g23
sbag7
(g8
g9
NtRp358
(dp359
g12
g18
sg14
S'Lohit Assamese'
p360
sg16
I400
sg17
g18
sg19
g18
sg20
S'/usr/share/fonts/lohit-assamese/Lohit-Assamese.ttf'
p361
sg22
g23
sbag7
(g8
g9
NtRp362
(dp363
g12
g46
sg14
S'DejaVu Serif'
p364
sg16
I700
sg17
g18
sg19
g18
sg20
S'/usr/share/fonts/dejavu/DejaVuSerif-BoldItalic.ttf'
p365
sg22
g23
sbag7
(g8
g9
NtRp366
(dp367
g12
g13
sg14
S'DejaVu Sans'
p368
sg16
I700
sg17
g204
sg19
g18
sg20
S'/usr/share/fonts/dejavu/DejaVuSansCondensed-BoldOblique.ttf'
p369
sg22
g23
sbag7
(g8
g9
NtRp370
(dp371
g12
g46
sg14
S'DejaVu Serif'
p372
sg16
I400
sg17
g18
sg19
g18
sg20
S'/usr/share/fonts/dejavu/DejaVuSerif-Italic.ttf'
p373
sg22
g23
sbag7
(g8
g9
NtRp374
(dp375
g12
g18
sg14
S'Lohit Tamil'
p376
sg16
I400
sg17
g18
sg19
g18
sg20
S'/usr/share/fonts/lohit-tamil/Lohit-Tamil.ttf'
p377
sg22
g23
sbag7
(g8
g9
NtRp378
(dp379
g12
g13
sg14
S'DejaVu Sans'
p380
sg16
I400
sg17
g204
sg19
g18
sg20
S'/usr/share/fonts/dejavu/DejaVuSansCondensed-Oblique.ttf'
p381
sg22
g23
sbag7
(g8
g9
NtRp382
(dp383
g12
g46
sg14
S'Liberation Mono'
p384
sg16
I700
sg17
g18
sg19
g18
sg20
S'/usr/share/fonts/liberation/LiberationMono-BoldItalic.ttf'
p385
sg22
g23
sbag7
(g8
g9
NtRp386
(dp387
g12
g18
sg14
S'DejaVu Sans Mono'
p388
sg16
I700
sg17
g18
sg19
g18
sg20
S'/usr/share/fonts/dejavu/DejaVuSansMono-Bold.ttf'
p389
sg22
g23
sbag7
(g8
g9
NtRp390
(dp391
g12
g18
sg14
S'DejaVu Sans'
p392
sg16
I200
sg17
g18
sg19
g18
sg20
S'/usr/share/fonts/dejavu/DejaVuSans-ExtraLight.ttf'
p393
sg22
g23
sbag7
(g8
g9
NtRp394
(dp395
g12
g18
sg14
S'Khmer OS Content'
p396
sg16
I400
sg17
g18
sg19
g18
sg20
S'/usr/share/fonts/khmeros/KhmerOS_content.ttf'
p397
sg22
g23
sbag7
(g8
g9
NtRp398
(dp399
g12
g18
sg14
S'DejaVu Serif'
p400
sg16
I700
sg17
g204
sg19
g18
sg20
S'/usr/share/fonts/dejavu/DejaVuSerifCondensed-Bold.ttf'
p401
sg22
g23
sbag7
(g8
g9
NtRp402
(dp403
g12
g18
sg14
S'Madan2'
p404
sg16
I400
sg17
g18
sg19
g18
sg20
S'/usr/share/fonts/madan/madan.ttf'
p405
sg22
g23
sbag7
(g8
g9
NtRp406
(dp407
g12
g18
sg14
S'Lohit Bengali'
p408
sg16
I400
sg17
g18
sg19
g18
sg20
S'/usr/share/fonts/lohit-bengali/Lohit-Bengali.ttf'
p409
sg22
g23
sbag7
(g8
g9
NtRp410
(dp411
g12
g18
sg14
S'VL Gothic'
p412
sg16
I400
sg17
g18
sg19
g18
sg20
S'/usr/share/fonts/vlgothic/VL-Gothic-Regular.ttf'
p413
sg22
g23
sbag7
(g8
g9
NtRp414
(dp415
g12
g18
sg14
S'Lohit Devanagari'
p416
sg16
I400
sg17
g18
sg19
g18
sg20
S'/usr/share/fonts/lohit-devanagari/Lohit-Devanagari.ttf'
p417
sg22
g23
sbag7
(g8
g9
NtRp418
(dp419
g12
g18
sg14
S'Khmer OS System'
p420
sg16
I400
sg17
g18
sg19
g18
sg20
S'/usr/share/fonts/khmeros/KhmerOS_sys.ttf'
p421
sg22
g23
sbag7
(g8
g9
NtRp422
(dp423
g12
g46
sg14
S'Liberation Mono'
p424
sg16
I400
sg17
g18
sg19
g18
sg20
S'/usr/share/fonts/liberation/LiberationMono-Italic.ttf'
p425
sg22
g23
sbag7
(g8
g9
NtRp426
(dp427
g12
g18
sg14
S'Liberation Mono'
p428
sg16
I700
sg17
g18
sg19
g18
sg20
S'/usr/share/fonts/liberation/LiberationMono-Bold.ttf'
p429
sg22
g23
sbag7
(g8
g9
NtRp430
(dp431
g12
g18
sg14
S'Waree'
p432
sg16
I700
sg17
g18
sg19
g18
sg20
S'/usr/share/fonts/thai-scalable/Waree-Bold.ttf'
p433
sg22
g23
sbag7
(g8
g9
NtRp434
(dp435
g12
g18
sg14
S'OpenSymbol'
p436
sg16
I400
sg17
g18
sg19
g18
sg20
S'/usr/share/fonts/opensymbol/opens___.ttf'
p437
sg22
g23
sbag7
(g8
g9
NtRp438
(dp439
g12
g18
sg14
S'Lohit Oriya'
p440
sg16
I400
sg17
g18
sg19
g18
sg20
S'/usr/share/fonts/lohit-oriya/Lohit-Oriya.ttf'
p441
sg22
g23
sbag7
(g8
g9
NtRp442
(dp443
g12
g46
sg14
S'Carlito'
p444
sg16
I700
sg17
g18
sg19
g18
sg20
S'/usr/share/fonts/google-crosextra-carlito/Carlito-BoldItalic.ttf'
p445
sg22
g23
sbag7
(g8
g9
NtRp446
(dp447
g12
g46
sg14
S'Liberation Serif'
p448
sg16
I700
sg17
g18
sg19
g18
sg20
S'/usr/share/fonts/liberation/LiberationSerif-BoldItalic.ttf'
p449
sg22
g23
sbag7
(g8
g9
NtRp450
(dp451
g12
g18
sg14
S'Padauk'
p452
sg16
I700
sg17
g18
sg19
g18
sg20
S'/usr/share/fonts/sil-padauk/Padauk-Bold.ttf'
p453
sg22
g23
sbag7
(g8
g9
NtRp454
(dp455
g12
g18
sg14
S'DejaVu Sans Mono'
p456
sg16
I400
sg17
g18
sg19
g18
sg20
S'/usr/share/fonts/dejavu/DejaVuSansMono.ttf'
p457
sg22
g23
sbag7
(g8
g9
NtRp458
(dp459
g12
g46
sg14
S'Caladea'
p460
sg16
I400
sg17
g18
sg19
g18
sg20
S'/usr/share/fonts/google-crosextra-caladea/Caladea-Italic.ttf'
p461
sg22
g23
sbasS'defaultFamily'
p462
(dp463
S'afm'
p464
S'Helvetica'
p465
sS'ttf'
p466
S'Bitstream Vera Sans'
p467
ssS'ttffiles'
p468
(lp469
S'/util/python-2.7.3/lib/python2.7/site-packages/matplotlib/mpl-data/fonts/ttf/VeraIt.ttf'
p470
aS'/util/python-2.7.3/lib/python2.7/site-packages/matplotlib/mpl-data/fonts/ttf/STIXSizFourSymReg.ttf'
p471
aS'/util/python-2.7.3/lib/python2.7/site-packages/matplotlib/mpl-data/fonts/ttf/cmmi10.ttf'
p472
aS'/util/python-2.7.3/lib/python2.7/site-packages/matplotlib/mpl-data/fonts/ttf/STIXSizThreeSymBol.ttf'
p473
aS'/util/python-2.7.3/lib/python2.7/site-packages/matplotlib/mpl-data/fonts/ttf/STIXSizOneSymReg.ttf'
p474
aS'/util/python-2.7.3/lib/python2.7/site-packages/matplotlib/mpl-data/fonts/ttf/STIXSizOneSymBol.ttf'
p475
aS'/util/python-2.7.3/lib/python2.7/site-packages/matplotlib/mpl-data/fonts/ttf/STIXGeneralItalic.ttf'
p476
aS'/util/python-2.7.3/lib/python2.7/site-packages/matplotlib/mpl-data/fonts/ttf/VeraBd.ttf'
p477
aS'/util/python-2.7.3/lib/python2.7/site-packages/matplotlib/mpl-data/fonts/ttf/STIXGeneralBolIta.ttf'
p478
aS'/util/python-2.7.3/lib/python2.7/site-packages/matplotlib/mpl-data/fonts/ttf/STIXSizFourSymBol.ttf'
p479
aS'/util/python-2.7.3/lib/python2.7/site-packages/matplotlib/mpl-data/fonts/ttf/cmb10.ttf'
p480
aS'/util/python-2.7.3/lib/python2.7/site-packages/matplotlib/mpl-data/fonts/ttf/cmsy10.ttf'
p481
aS'/util/python-2.7.3/lib/python2.7/site-packages/matplotlib/mpl-data/fonts/ttf/STIXSizTwoSymReg.ttf'
p482
aS'/util/python-2.7.3/lib/python2.7/site-packages/matplotlib/mpl-data/fonts/ttf/STIXSizFiveSymReg.ttf'
p483
aS'/util/python-2.7.3/lib/python2.7/site-packages/matplotlib/mpl-data/fonts/ttf/VeraSeBd.ttf'
p484
aS'/util/python-2.7.3/lib/python2.7/site-packages/matplotlib/mpl-data/fonts/ttf/cmr10.ttf'
p485
aS'/util/python-2.7.3/lib/python2.7/site-packages/matplotlib/mpl-data/fonts/ttf/VeraSe.ttf'
p486
aS'/util/python-2.7.3/lib/python2.7/site-packages/matplotlib/mpl-data/fonts/ttf/STIXGeneralBol.ttf'
p487
aS'/util/python-2.7.3/lib/python2.7/site-packages/matplotlib/mpl-data/fonts/ttf/cmex10.ttf'
p488
aS'/util/python-2.7.3/lib/python2.7/site-packages/matplotlib/mpl-data/fonts/ttf/VeraBI.ttf'
p489
aS'/util/python-2.7.3/lib/python2.7/site-packages/matplotlib/mpl-data/fonts/ttf/STIXGeneral.ttf'
p490
aS'/util/python-2.7.3/lib/python2.7/site-packages/matplotlib/mpl-data/fonts/ttf/STIXSizTwoSymBol.ttf'
p491
aS'/util/python-2.7.3/lib/python2.7/site-packages/matplotlib/mpl-data/fonts/ttf/Vera.ttf'
p492
aS'/util/python-2.7.3/lib/python2.7/site-packages/matplotlib/mpl-data/fonts/ttf/STIXNonUniBol.ttf'
p493
aS'/util/python-2.7.3/lib/python2.7/site-packages/matplotlib/mpl-data/fonts/ttf/cmss10.ttf'
p494
aS'/util/python-2.7.3/lib/python2.7/site-packages/matplotlib/mpl-data/fonts/ttf/VeraMoBd.ttf'
p495
aS'/util/python-2.7.3/lib/python2.7/site-packages/matplotlib/mpl-data/fonts/ttf/STIXNonUniBolIta.ttf'
p496
aS'/util/python-2.7.3/lib/python2.7/site-packages/matplotlib/mpl-data/fonts/ttf/VeraMoBI.ttf'
p497
aS'/util/python-2.7.3/lib/python2.7/site-packages/matplotlib/mpl-data/fonts/ttf/VeraMoIt.ttf'
p498
aS'/util/python-2.7.3/lib/python2.7/site-packages/matplotlib/mpl-data/fonts/ttf/STIXNonUni.ttf'
p499
aS'/util/python-2.7.3/lib/python2.7/site-packages/matplotlib/mpl-data/fonts/ttf/cmtt10.ttf'
p500
aS'/util/python-2.7.3/lib/python2.7/site-packages/matplotlib/mpl-data/fonts/ttf/STIXNonUniIta.ttf'
p501
aS'/util/python-2.7.3/lib/python2.7/site-packages/matplotlib/mpl-data/fonts/ttf/STIXSizThreeSymReg.ttf'
p502
aS'/util/python-2.7.3/lib/python2.7/site-packages/matplotlib/mpl-data/fonts/ttf/VeraMono.ttf'
p503
aS'/usr/share/fonts/thai-scalable/Waree-Oblique.ttf'
p504
aS'/usr/share/fonts/khmeros/KhmerOS.ttf'
p505
aS'/usr/share/fonts/liberation/LiberationSans-Italic.ttf'
p506
aS'/usr/share/fonts/stix/STIXGeneral.otf'
p507
aS'/usr/share/fonts/smc/Meera.ttf'
p508
aS'/usr/share/fonts/stix/STIXGeneralItalic.otf'
p509
aS'/usr/share/fonts/paktype/PakTypeNaqsh.ttf'
p510
aS'/usr/share/fonts/liberation/LiberationSerif-Regular.ttf'
p511
aS'/usr/share/fonts/google-crosextra-carlito/Carlito-Regular.ttf'
p512
aS'/usr/share/fonts/stix/STIXGeneralBol.otf'
p513
aS'/usr/share/fonts/liberation/LiberationMono-Regular.ttf'
p514
aS'/usr/share/fonts/dejavu/DejaVuSerifCondensed-BoldItalic.ttf'
p515
aS'/usr/share/fonts/dejavu/DejaVuSerifCondensed.ttf'
p516
aS'/usr/share/fonts/stix/STIXGeneralBolIta.otf'
p517
aS'/usr/share/fonts/liberation/LiberationSans-Regular.ttf'
p518
aS'/usr/share/fonts/dejavu/DejaVuSerif.ttf'
p519
aS'/usr/share/fonts/liberation/LiberationSans-Bold.ttf'
p520
aS'/usr/share/fonts/liberation/LiberationSerif-Bold.ttf'
p521
aS'/usr/share/fonts/google-crosextra-caladea/Caladea-BoldItalic.ttf'
p522
aS'/usr/share/fonts/lohit-gujarati/Lohit-Gujarati.ttf'
p523
aS'/usr/share/fonts/dejavu/DejaVuSerif-Bold.ttf'
p524
aS'/usr/share/fonts/liberation/LiberationSerif-Italic.ttf'
p525
aS'/usr/share/fonts/dejavu/DejaVuSerifCondensed-Italic.ttf'
p526
aS'/usr/share/fonts/abyssinica/Abyssinica_SIL.ttf'
p527
aS'/usr/share/fonts/thai-scalable/Waree-BoldOblique.ttf'
p528
aS'/usr/share/fonts/dejavu/DejaVuSansCondensed-Bold.ttf'
p529
aS'/usr/share/fonts/un-core/UnDotum.ttf'
p530
aS'/usr/share/fonts/un-core/UnDotumBold.ttf'
p531
aS'/usr/share/fonts/paktype/PakTypeTehreer.ttf'
p532
aS'/usr/share/fonts/dejavu/DejaVuSansMono-Oblique.ttf'
p533
aS'/usr/share/fonts/lohit-kannada/Lohit-Kannada.ttf'
p534
aS'/usr/share/fonts/dejavu/DejaVuSans-BoldOblique.ttf'
p535
aS'/usr/share/fonts/dejavu/DejaVuSans-Bold.ttf'
p536
aS'/usr/share/fonts/jomolhari/Jomolhari-alpha3c-0605331.ttf'
p537
aS'/usr/share/fonts/kurdit-unikurd-web/Unikuweb.ttf'
p538
aS'/usr/share/fonts/dejavu/DejaVuSans-Oblique.ttf'
p539
aS'/usr/share/fonts/sil-padauk/Padauk.ttf'
p540
aS'/usr/share/fonts/dejavu/DejaVuSans.ttf'
p541
aS'/usr/share/fonts/tibetan-machine-uni/TibMachUni-1.901b.ttf'
p542
aS'/usr/share/fonts/lohit-punjabi/Lohit-Punjabi.ttf'
p543
aS'/usr/share/fonts/lohit-telugu/Lohit-Telugu.ttf'
p544
aS'/usr/share/fonts/google-crosextra-carlito/Carlito-Italic.ttf'
p545
aS'/usr/share/fonts/lklug/lklug.ttf'
p546
aS'/usr/share/fonts/liberation/LiberationSans-BoldItalic.ttf'
p547
aS'/usr/share/fonts/dejavu/DejaVuSansCondensed.ttf'
p548
aS'/usr/share/fonts/thai-scalable/Waree.ttf'
p549
aS'/usr/share/fonts/dejavu/DejaVuSansMono-BoldOblique.ttf'
p550
aS'/usr/share/fonts/google-crosextra-caladea/Caladea-Regular.ttf'
p551
aS'/usr/share/fonts/google-crosextra-caladea/Caladea-Bold.ttf'
p552
aS'/usr/share/fonts/google-crosextra-carlito/Carlito-Bold.ttf'
p553
aS'/usr/share/fonts/lohit-assamese/Lohit-Assamese.ttf'
p554
aS'/usr/share/fonts/dejavu/DejaVuSerif-BoldItalic.ttf'
p555
aS'/usr/share/fonts/dejavu/DejaVuSansCondensed-BoldOblique.ttf'
p556
aS'/usr/share/fonts/dejavu/DejaVuSerif-Italic.ttf'
p557
aS'/usr/share/fonts/lohit-tamil/Lohit-Tamil.ttf'
p558
aS'/usr/share/fonts/dejavu/DejaVuSansCondensed-Oblique.ttf'
p559
aS'/usr/share/fonts/liberation/LiberationMono-BoldItalic.ttf'
p560
aS'/usr/share/fonts/dejavu/DejaVuSansMono-Bold.ttf'
p561
aS'/usr/share/fonts/dejavu/DejaVuSans-ExtraLight.ttf'
p562
aS'/usr/share/fonts/khmeros/KhmerOS_content.ttf'
p563
aS'/usr/share/fonts/dejavu/DejaVuSerifCondensed-Bold.ttf'
p564
aS'/usr/share/fonts/madan/madan.ttf'
p565
aS'/usr/share/fonts/lohit-bengali/Lohit-Bengali.ttf'
p566
aS'/usr/share/fonts/vlgothic/VL-Gothic-Regular.ttf'
p567
aS'/usr/share/fonts/lohit-devanagari/Lohit-Devanagari.ttf'
p568
aS'/usr/share/fonts/khmeros/KhmerOS_sys.ttf'
p569
aS'/usr/share/fonts/liberation/LiberationMono-Italic.ttf'
p570
aS'/usr/share/fonts/liberation/LiberationMono-Bold.ttf'
p571
aS'/usr/share/fonts/thai-scalable/Waree-Bold.ttf'
p572
aS'/usr/share/fonts/opensymbol/opens___.ttf'
p573
aS'/usr/share/fonts/lohit-oriya/Lohit-Oriya.ttf'
p574
aS'/usr/share/fonts/google-crosextra-carlito/Carlito-BoldItalic.ttf'
p575
aS'/usr/share/fonts/liberation/LiberationSerif-BoldItalic.ttf'
p576
aS'/usr/share/fonts/sil-padauk/Padauk-Bold.ttf'
p577
aS'/usr/share/fonts/dejavu/DejaVuSansMono.ttf'
p578
aS'/usr/share/fonts/google-crosextra-caladea/Caladea-Italic.ttf'
p579
asS'_FontManager__default_weight'
p580
g18
sS'_version'
p581
I7
sS'ttf_lookup_cache'
p582
(dp583
sS'default_size'
p584
NsS'defaultFont'
p585
(dp586
g464
Nsg466
g492
ssS'afmfiles'
p587
(lp588
S'/util/python-2.7.3/lib/python2.7/site-packages/matplotlib/mpl-data/fonts/afm/phvb8an.afm'
p589
aS'/util/python-2.7.3/lib/python2.7/site-packages/matplotlib/mpl-data/fonts/afm/ptmr8a.afm'
p590
aS'/util/python-2.7.3/lib/python2.7/site-packages/matplotlib/mpl-data/fonts/afm/cmmi10.afm'
p591
aS'/util/python-2.7.3/lib/python2.7/site-packages/matplotlib/mpl-data/fonts/afm/putb8a.afm'
p592
aS'/util/python-2.7.3/lib/python2.7/site-packages/matplotlib/mpl-data/fonts/afm/pagdo8a.afm'
p593
aS'/util/python-2.7.3/lib/python2.7/site-packages/matplotlib/mpl-data/fonts/afm/pbkd8a.afm'
p594
aS'/util/python-2.7.3/lib/python2.7/site-packages/matplotlib/mpl-data/fonts/pdfcorefonts/Symbol.afm'
p595
aS'/util/python-2.7.3/lib/python2.7/site-packages/matplotlib/mpl-data/fonts/afm/pcrbo8a.afm'
p596
aS'/util/python-2.7.3/lib/python2.7/site-packages/matplotlib/mpl-data/fonts/afm/ptmbi8a.afm'
p597
aS'/util/python-2.7.3/lib/python2.7/site-packages/matplotlib/mpl-data/fonts/afm/phvr8an.afm'
p598
aS'/util/python-2.7.3/lib/python2.7/site-packages/matplotlib/mpl-data/fonts/afm/phvbo8a.afm'
p599
aS'/util/python-2.7.3/lib/python2.7/site-packages/matplotlib/mpl-data/fonts/afm/pplbi8a.afm'
p600
aS'/util/python-2.7.3/lib/python2.7/site-packages/matplotlib/mpl-data/fonts/pdfcorefonts/Helvetica-Oblique.afm'
p601
aS'/util/python-2.7.3/lib/python2.7/site-packages/matplotlib/mpl-data/fonts/pdfcorefonts/Helvetica-BoldOblique.afm'
p602
aS'/util/python-2.7.3/lib/python2.7/site-packages/matplotlib/mpl-data/fonts/pdfcorefonts/Helvetica.afm'
p603
aS'/util/python-2.7.3/lib/python2.7/site-packages/matplotlib/mpl-data/fonts/afm/pcrb8a.afm'
p604
aS'/util/python-2.7.3/lib/python2.7/site-packages/matplotlib/mpl-data/fonts/afm/pncr8a.afm'
p605
aS'/util/python-2.7.3/lib/python2.7/site-packages/matplotlib/mpl-data/fonts/afm/pplri8a.afm'
p606
aS'/util/python-2.7.3/lib/python2.7/site-packages/matplotlib/mpl-data/fonts/afm/phvro8an.afm'
p607
aS'/util/python-2.7.3/lib/python2.7/site-packages/matplotlib/mpl-data/fonts/afm/cmtt10.afm'
p608
aS'/util/python-2.7.3/lib/python2.7/site-packages/matplotlib/mpl-data/fonts/afm/pncbi8a.afm'
p609
aS'/util/python-2.7.3/lib/python2.7/site-packages/matplotlib/mpl-data/fonts/afm/putr8a.afm'
p610
aS'/util/python-2.7.3/lib/python2.7/site-packages/matplotlib/mpl-data/fonts/afm/psyr.afm'
p611
aS'/util/python-2.7.3/lib/python2.7/site-packages/matplotlib/mpl-data/fonts/afm/putri8a.afm'
p612
aS'/util/python-2.7.3/lib/python2.7/site-packages/matplotlib/mpl-data/fonts/pdfcorefonts/Courier-Oblique.afm'
p613
aS'/util/python-2.7.3/lib/python2.7/site-packages/matplotlib/mpl-data/fonts/afm/pzcmi8a.afm'
p614
aS'/util/python-2.7.3/lib/python2.7/site-packages/matplotlib/mpl-data/fonts/pdfcorefonts/ZapfDingbats.afm'
p615
aS'/util/python-2.7.3/lib/python2.7/site-packages/matplotlib/mpl-data/fonts/afm/pplb8a.afm'
p616
aS'/util/python-2.7.3/lib/python2.7/site-packages/matplotlib/mpl-data/fonts/afm/pbkdi8a.afm'
p617
aS'/util/python-2.7.3/lib/python2.7/site-packages/matplotlib/mpl-data/fonts/afm/pzdr.afm'
p618
aS'/util/python-2.7.3/lib/python2.7/site-packages/matplotlib/mpl-data/fonts/afm/phvb8a.afm'
p619
aS'/util/python-2.7.3/lib/python2.7/site-packages/matplotlib/mpl-data/fonts/afm/pplr8a.afm'
p620
aS'/util/python-2.7.3/lib/python2.7/site-packages/matplotlib/mpl-data/fonts/afm/cmsy10.afm'
p621
aS'/util/python-2.7.3/lib/python2.7/site-packages/matplotlib/mpl-data/fonts/pdfcorefonts/Courier.afm'
p622
aS'/util/python-2.7.3/lib/python2.7/site-packages/matplotlib/mpl-data/fonts/afm/phvlo8a.afm'
p623
aS'/util/python-2.7.3/lib/python2.7/site-packages/matplotlib/mpl-data/fonts/afm/pcrr8a.afm'
p624
aS'/util/python-2.7.3/lib/python2.7/site-packages/matplotlib/mpl-data/fonts/afm/ptmb8a.afm'
p625
aS'/util/python-2.7.3/lib/python2.7/site-packages/matplotlib/mpl-data/fonts/afm/pbkli8a.afm'
p626
aS'/util/python-2.7.3/lib/python2.7/site-packages/matplotlib/mpl-data/fonts/pdfcorefonts/Courier-BoldOblique.afm'
p627
aS'/util/python-2.7.3/lib/python2.7/site-packages/matplotlib/mpl-data/fonts/afm/pcrro8a.afm'
p628
aS'/util/python-2.7.3/lib/python2.7/site-packages/matplotlib/mpl-data/fonts/afm/pagk8a.afm'
p629
aS'/util/python-2.7.3/lib/python2.7/site-packages/matplotlib/mpl-data/fonts/afm/ptmri8a.afm'
p630
aS'/util/python-2.7.3/lib/python2.7/site-packages/matplotlib/mpl-data/fonts/afm/phvro8a.afm'
p631
aS'/util/python-2.7.3/lib/python2.7/site-packages/matplotlib/mpl-data/fonts/pdfcorefonts/Times-Bold.afm'
p632
aS'/util/python-2.7.3/lib/python2.7/site-packages/matplotlib/mpl-data/fonts/afm/putbi8a.afm'
p633
aS'/util/python-2.7.3/lib/python2.7/site-packages/matplotlib/mpl-data/fonts/afm/pbkl8a.afm'
p634
aS'/util/python-2.7.3/lib/python2.7/site-packages/matplotlib/mpl-data/fonts/pdfcorefonts/Courier-Bold.afm'
p635
aS'/util/python-2.7.3/lib/python2.7/site-packages/matplotlib/mpl-data/fonts/afm/cmr10.afm'
p636
aS'/util/python-2.7.3/lib/python2.7/site-packages/matplotlib/mpl-data/fonts/pdfcorefonts/Times-BoldItalic.afm'
p637
aS'/util/python-2.7.3/lib/python2.7/site-packages/matplotlib/mpl-data/fonts/pdfcorefonts/Times-Italic.afm'
p638
aS'/util/python-2.7.3/lib/python2.7/site-packages/matplotlib/mpl-data/fonts/afm/pagko8a.afm'
p639
aS'/util/python-2.7.3/lib/python2.7/site-packages/matplotlib/mpl-data/fonts/pdfcorefonts/Times-Roman.afm'
p640
aS'/util/python-2.7.3/lib/python2.7/site-packages/matplotlib/mpl-data/fonts/afm/phvr8a.afm'
p641
aS'/util/python-2.7.3/lib/python2.7/site-packages/matplotlib/mpl-data/fonts/afm/pncb8a.afm'
p642
aS'/util/python-2.7.3/lib/python2.7/site-packages/matplotlib/mpl-data/fonts/afm/phvl8a.afm'
p643
aS'/util/python-2.7.3/lib/python2.7/site-packages/matplotlib/mpl-data/fonts/pdfcorefonts/Helvetica-Bold.afm'
p644
aS'/util/python-2.7.3/lib/python2.7/site-packages/matplotlib/mpl-data/fonts/afm/phvbo8an.afm'
p645
aS'/util/python-2.7.3/lib/python2.7/site-packages/matplotlib/mpl-data/fonts/afm/pagd8a.afm'
p646
aS'/util/python-2.7.3/lib/python2.7/site-packages/matplotlib/mpl-data/fonts/afm/cmex10.afm'
p647
aS'/util/python-2.7.3/lib/python2.7/site-packages/matplotlib/mpl-data/fonts/afm/pncri8a.afm'
p648
aS'/usr/share/fonts/default/Type1/n021003l.afm'
p649
aS'/usr/share/fonts/ctan-cm-lgc/fcmbcpg.afm'
p650
aS'/usr/share/fonts/default/ghostscript/u003043t.afm'
p651
aS'/usr/share/fonts/ctan-cm-lgc/fcmbice.afm'
p652
aS'/usr/share/fonts/default/Type1/n022004l.afm'
p653
aS'/usr/share/fonts/ctan-cm-lgc/fcmbc8a.afm'
p654
aS'/usr/share/fonts/ctan-cm-lgc/fctrc6z.afm'
p655
aS'/usr/share/fonts/default/Type1/n019043l.afm'
p656
aS'/usr/share/fonts/ctan-cm-lgc/fctr6z.afm'
p657
aS'/usr/share/fonts/default/Type1/n019044l.afm'
p658
aS'/usr/share/fonts/ctan-cm-lgc/fcsropg.afm'
p659
aS'/usr/share/fonts/default/Type1/n021004l.afm'
p660
aS'/usr/share/fonts/ctan-cm-lgc/fcmrce.afm'
p661
aS'/usr/share/fonts/ctan-cm-lgc/fcmr6y.afm'
p662
aS'/usr/share/fonts/ctan-cm-lgc/fcmbi6z.afm'
p663
aS'/usr/share/fonts/default/ghostscript/fcyr.afm'
p664
aS'/usr/share/fonts/ctan-cm-lgc/fcsro6z.afm'
p665
aS'/usr/share/fonts/ctan-cm-lgc/fcmbc6y.afm'
p666
aS'/usr/share/fonts/default/Type1/n019004l.afm'
p667
aS'/usr/share/fonts/ctan-cm-lgc/fctrpg.afm'
p668
aS'/usr/share/fonts/ctan-cm-lgc/fctr8a.afm'
p669
aS'/usr/share/fonts/ctan-cm-lgc/fcsr6z.afm'
p670
aS'/usr/share/fonts/default/Type1/a010033l.afm'
p671
aS'/usr/share/fonts/ctan-cm-lgc/fcmripg.afm'
p672
aS'/usr/share/fonts/ctan-cm-lgc/fcmbijce.afm'
p673
aS'/usr/share/fonts/ctan-cm-lgc/fcsrce.afm'
p674
aS'/usr/share/fonts/default/Type1/n021023l.afm'
p675
aS'/usr/share/fonts/default/Type1/b018032l.afm'
p676
aS'/usr/share/fonts/ctan-cm-lgc/fctrijpg.afm'
p677
aS'/usr/share/fonts/ctan-cm-lgc/fcmrice.afm'
p678
aS'/usr/share/fonts/ctan-cm-lgc/fcmbpg.afm'
p679
aS'/usr/share/fonts/ctan-cm-lgc/fcmrijce.afm'
p680
aS'/usr/share/fonts/ctan-cm-lgc/fctri6y.afm'
p681
aS'/usr/share/fonts/ctan-cm-lgc/fctrc6y.afm'
p682
aS'/usr/share/fonts/ctan-cm-lgc/fctrijce.afm'
p683
aS'/usr/share/fonts/ctan-cm-lgc/fcmb6z.afm'
p684
aS'/usr/share/fonts/ctan-cm-lgc/fctrij8a.afm'
p685
aS'/usr/share/fonts/ctan-cm-lgc/fctrcce.afm'
p686
aS'/usr/share/fonts/ctan-cm-lgc/fcmr6z.afm'
p687
aS'/usr/share/fonts/ctan-cm-lgc/fcmrc6y.afm'
p688
aS'/usr/share/fonts/default/Type1/a010035l.afm'
p689
aS'/usr/share/fonts/ctan-cm-lgc/fctrij6z.afm'
p690
aS'/usr/share/fonts/default/Type1/c059036l.afm'
p691
aS'/usr/share/fonts/default/Type1/b018012l.afm'
p692
aS'/usr/share/fonts/ctan-cm-lgc/fctrc8a.afm'
p693
aS'/usr/share/fonts/default/Type1/d050000l.afm'
p694
aS'/usr/share/fonts/ctan-cm-lgc/fcmbipg.afm'
p695
aS'/usr/share/fonts/ctan-cm-lgc/fcmri6z.afm'
p696
aS'/usr/share/fonts/default/Type1/a010015l.afm'
p697
aS'/usr/share/fonts/ctan-cm-lgc/fcmbij6z.afm'
p698
aS'/usr/share/fonts/default/Type1/b018015l.afm'
p699
aS'/usr/share/fonts/ctan-cm-lgc/fcmbi6y.afm'
p700
aS'/usr/share/fonts/default/ghostscript/fcyri.afm'
p701
aS'/usr/share/fonts/default/Type1/p052024l.afm'
p702
aS'/usr/share/fonts/ctan-cm-lgc/fcsbpg.afm'
p703
aS'/usr/share/fonts/default/Type1/p052003l.afm'
p704
aS'/usr/share/fonts/ctan-cm-lgc/fcmri8a.afm'
p705
aS'/usr/share/fonts/ctan-cm-lgc/fctrce.afm'
p706
aS'/usr/share/fonts/default/Type1/p052004l.afm'
p707
aS'/usr/share/fonts/ctan-cm-lgc/fcmrcpg.afm'
p708
aS'/usr/share/fonts/default/Type1/n019023l.afm'
p709
aS'/usr/share/fonts/ctan-cm-lgc/fcsbo6y.afm'
p710
aS'/usr/share/fonts/ctan-cm-lgc/fcsro8a.afm'
p711
aS'/usr/share/fonts/default/Type1/n019063l.afm'
p712
aS'/usr/share/fonts/ctan-cm-lgc/fcmrc6z.afm'
p713
aS'/usr/share/fonts/ctan-cm-lgc/fcsb6z.afm'
p714
aS'/usr/share/fonts/ctan-cm-lgc/fcsro6y.afm'
p715
aS'/usr/share/fonts/ctan-cm-lgc/fcmrcce.afm'
p716
aS'/usr/share/fonts/ctan-cm-lgc/fcmri6y.afm'
p717
aS'/usr/share/fonts/ctan-cm-lgc/fcmbi8a.afm'
p718
aS'/usr/share/fonts/default/Type1/a010013l.afm'
p719
aS'/usr/share/fonts/default/Type1/s050000l.afm'
p720
aS'/usr/share/fonts/ctan-cm-lgc/fcmbij8a.afm'
p721
aS'/usr/share/fonts/ctan-cm-lgc/fcmbcce.afm'
p722
aS'/usr/share/fonts/ctan-cm-lgc/fcmrijpg.afm'
p723
aS'/usr/share/fonts/ctan-cm-lgc/fctri6z.afm'
p724
aS'/usr/share/fonts/ctan-cm-lgc/fcmbijpg.afm'
p725
aS'/usr/share/fonts/default/Type1/n022024l.afm'
p726
aS'/usr/share/fonts/ctan-cm-lgc/fcmrij6y.afm'
p727
aS'/usr/share/fonts/default/Type1/c059033l.afm'
p728
aS'/usr/share/fonts/ctan-cm-lgc/fcsr8a.afm'
p729
aS'/usr/share/fonts/default/ghostscript/u004006t.afm'
p730
aS'/usr/share/fonts/ctan-cm-lgc/fctr6y.afm'
p731
aS'/usr/share/fonts/ctan-cm-lgc/fcmb6y.afm'
p732
aS'/usr/share/fonts/default/Type1/c059016l.afm'
p733
aS'/usr/share/fonts/ctan-cm-lgc/fcsbo8a.afm'
p734
aS'/usr/share/fonts/ctan-cm-lgc/fctrcpg.afm'
p735
aS'/usr/share/fonts/ctan-cm-lgc/fcmrc8a.afm'
p736
aS'/usr/share/fonts/ctan-cm-lgc/fcsbo6z.afm'
p737
aS'/usr/share/fonts/default/Type1/n019003l.afm'
p738
aS'/usr/share/fonts/default/Type1/b018035l.afm'
p739
aS'/usr/share/fonts/ctan-cm-lgc/fcsbopg.afm'
p740
aS'/usr/share/fonts/ctan-cm-lgc/fctrice.afm'
p741
aS'/usr/share/fonts/default/Type1/n022023l.afm'
p742
aS'/usr/share/fonts/ctan-cm-lgc/fctri8a.afm'
p743
aS'/usr/share/fonts/ctan-cm-lgc/fcsb6y.afm'
p744
aS'/usr/share/fonts/default/Type1/n021024l.afm'
p745
aS'/usr/share/fonts/ctan-cm-lgc/fcmb8a.afm'
p746
aS'/usr/share/fonts/default/Type1/n022003l.afm'
p747
aS'/usr/share/fonts/default/Type1/n019064l.afm'
p748
aS'/usr/share/fonts/ctan-cm-lgc/fcmrij8a.afm'
p749
aS'/usr/share/fonts/ctan-cm-lgc/fcmrij6z.afm'
p750
aS'/usr/share/fonts/ctan-cm-lgc/fcmbc6z.afm'
p751
aS'/usr/share/fonts/ctan-cm-lgc/fcmrpg.afm'
p752
aS'/usr/share/fonts/default/Type1/n019024l.afm'
p753
aS'/usr/share/fonts/ctan-cm-lgc/fcsbce.afm'
p754
aS'/usr/share/fonts/ctan-cm-lgc/fcsrpg.afm'
p755
aS'/usr/share/fonts/ctan-cm-lgc/fcsr6y.afm'
p756
aS'/usr/share/fonts/default/Type1/z003034l.afm'
p757
aS'/usr/share/fonts/ctan-cm-lgc/fctrij6y.afm'
p758
aS'/usr/share/fonts/ctan-cm-lgc/fcmbij6y.afm'
p759
aS'/usr/share/fonts/ctan-cm-lgc/fcsb8a.afm'
p760
aS'/usr/share/fonts/ctan-cm-lgc/fcsboce.afm'
p761
aS'/usr/share/fonts/ctan-cm-lgc/fctripg.afm'
p762
aS'/usr/share/fonts/default/Type1/c059013l.afm'
p763
aS'/usr/share/fonts/ctan-cm-lgc/fcmr8a.afm'
p764
aS'/usr/share/fonts/ctan-cm-lgc/fcsroce.afm'
p765
aS'/usr/share/fonts/default/Type1/p052023l.afm'
p766
aS'/usr/share/fonts/ctan-cm-lgc/fcmbce.afm'
p767
asS'afmlist'
p768
(lp769
g7
(g8
g9
NtRp770
(dp771
g12
g18
sg14
S'Helvetica'
p772
sg16
I700
sg17
g204
sg19
g18
sg20
g589
sg22
g23
sbag7
(g8
g9
NtRp773
(dp774
g12
g18
sg14
S'Times'
p775
sg16
I500
sg17
g18
sg19
g18
sg20
g590
sg22
g23
sbag7
(g8
g9
NtRp776
(dp777
g12
g46
sg14
S'Computer Modern'
p778
sg16
I500
sg17
g18
sg19
g18
sg20
g591
sg22
g23
sbag7
(g8
g9
NtRp779
(dp780
g12
g18
sg14
S'Utopia'
p781
sg16
I700
sg17
g18
sg19
g18
sg20
g592
sg22
g23
sbag7
(g8
g9
NtRp782
(dp783
g12
g46
sg14
S'ITC Avant Garde Gothic'
p784
sg16
I600
sg17
g18
sg19
g18
sg20
g593
sg22
g23
sbag7
(g8
g9
NtRp785
(dp786
g12
g18
sg14
S'ITC Bookman'
p787
sg16
I600
sg17
g18
sg19
g18
sg20
g594
sg22
g23
sbag7
(g8
g9
NtRp788
(dp789
g12
g18
sg14
S'Symbol'
p790
sg16
I500
sg17
g18
sg19
g18
sg20
g595
sg22
g23
sbag7
(g8
g9
NtRp791
(dp792
g12
g46
sg14
S'Courier'
p793
sg16
I700
sg17
g18
sg19
g18
sg20
g596
sg22
g23
sbag7
(g8
g9
NtRp794
(dp795
g12
g46
sg14
S'Times'
p796
sg16
I700
sg17
g18
sg19
g18
sg20
g597
sg22
g23
sbag7
(g8
g9
NtRp797
(dp798
g12
g18
sg14
S'Helvetica'
p799
sg16
I500
sg17
g204
sg19
g18
sg20
g598
sg22
g23
sbag7
(g8
g9
NtRp800
(dp801
g12
g46
sg14
S'Helvetica'
p802
sg16
I700
sg17
g18
sg19
g18
sg20
g599
sg22
g23
sbag7
(g8
g9
NtRp803
(dp804
g12
g46
sg14
S'Palatino'
p805
sg16
I700
sg17
g18
sg19
g18
sg20
g600
sg22
g23
sbag7
(g8
g9
NtRp806
(dp807
g12
g46
sg14
S'Helvetica'
p808
sg16
I500
sg17
g18
sg19
g18
sg20
g601
sg22
g23
sbag7
(g8
g9
NtRp809
(dp810
g12
g46
sg14
S'Helvetica'
p811
sg16
I700
sg17
g18
sg19
g18
sg20
g602
sg22
g23
sbag7
(g8
g9
NtRp812
(dp813
g12
g18
sg14
S'Helvetica'
p814
sg16
I500
sg17
g18
sg19
g18
sg20
g603
sg22
g23
sbag7
(g8
g9
NtRp815
(dp816
g12
g18
sg14
S'Courier'
p817
sg16
I700
sg17
g18
sg19
g18
sg20
g604
sg22
g23
sbag7
(g8
g9
NtRp818
(dp819
g12
g18
sg14
S'New Century Schoolbook'
p820
sg16
I500
sg17
g18
sg19
g18
sg20
g605
sg22
g23
sbag7
(g8
g9
NtRp821
(dp822
g12
g46
sg14
S'Palatino'
p823
sg16
I500
sg17
g18
sg19
g18
sg20
g606
sg22
g23
sbag7
(g8
g9
NtRp824
(dp825
g12
g46
sg14
S'Helvetica'
p826
sg16
I500
sg17
g204
sg19
g18
sg20
g607
sg22
g23
sbag7
(g8
g9
NtRp827
(dp828
g12
g18
sg14
S'Computer Modern'
p829
sg16
I500
sg17
g18
sg19
g18
sg20
g608
sg22
g23
sbag7
(g8
g9
NtRp830
(dp831
g12
g46
sg14
S'New Century Schoolbook'
p832
sg16
I700
sg17
g18
sg19
g18
sg20
g609
sg22
g23
sbag7
(g8
g9
NtRp833
(dp834
g12
g18
sg14
S'Utopia'
p835
sg16
I400
sg17
g18
sg19
g18
sg20
g610
sg22
g23
sbag7
(g8
g9
NtRp836
(dp837
g12
g18
sg14
S'Symbol'
p838
sg16
I500
sg17
g18
sg19
g18
sg20
g611
sg22
g23
sbag7
(g8
g9
NtRp839
(dp840
g12
g46
sg14
S'Utopia'
p841
sg16
I400
sg17
g18
sg19
g18
sg20
g612
sg22
g23
sbag7
(g8
g9
NtRp842
(dp843
g12
g46
sg14
S'Courier'
p844
sg16
I500
sg17
g18
sg19
g18
sg20
g613
sg22
g23
sbag7
(g8
g9
NtRp845
(dp846
g12
g46
sg14
S'ITC Zapf Chancery'
p847
sg16
I500
sg17
g18
sg19
g18
sg20
g614
sg22
g23
sbag7
(g8
g9
NtRp848
(dp849
g12
g18
sg14
S'ZapfDingbats'
p850
sg16
I500
sg17
g18
sg19
g18
sg20
g615
sg22
g23
sbag7
(g8
g9
NtRp851
(dp852
g12
g18
sg14
S'Palatino'
p853
sg16
I700
sg17
g18
sg19
g18
sg20
g616
sg22
g23
sbag7
(g8
g9
NtRp854
(dp855
g12
g46
sg14
S'ITC Bookman'
p856
sg16
I600
sg17
g18
sg19
g18
sg20
g617
sg22
g23
sbag7
(g8
g9
NtRp857
(dp858
g12
g18
sg14
S'ITC Zapf Dingbats'
p859
sg16
I500
sg17
g18
sg19
g18
sg20
g618
sg22
g23
sbag7
(g8
g9
NtRp860
(dp861
g12
g18
sg14
S'Helvetica'
p862
sg16
I700
sg17
g18
sg19
g18
sg20
g619
sg22
g23
sbag7
(g8
g9
NtRp863
(dp864
g12
g18
sg14
S'Palatino'
p865
sg16
I500
sg17
g18
sg19
g18
sg20
g620
sg22
g23
sbag7
(g8
g9
NtRp866
(dp867
g12
g46
sg14
S'Computer Modern'
p868
sg16
I500
sg17
g18
sg19
g18
sg20
g621
sg22
g23
sbag7
(g8
g9
NtRp869
(dp870
g12
g18
sg14
S'Courier'
p871
sg16
I500
sg17
g18
sg19
g18
sg20
g622
sg22
g23
sbag7
(g8
g9
NtRp872
(dp873
g12
g46
sg14
S'Helvetica'
p874
sg16
I200
sg17
g18
sg19
g18
sg20
g623
sg22
g23
sbag7
(g8
g9
NtRp875
(dp876
g12
g18
sg14
S'Courier'
p877
sg16
I500
sg17
g18
sg19
g18
sg20
g624
sg22
g23
sbag7
(g8
g9
NtRp878
(dp879
g12
g18
sg14
S'Times'
p880
sg16
I700
sg17
g18
sg19
g18
sg20
g625
sg22
g23
sbag7
(g8
g9
NtRp881
(dp882
g12
g46
sg14
S'ITC Bookman'
p883
sg16
I200
sg17
g18
sg19
g18
sg20
g626
sg22
g23
sbag7
(g8
g9
NtRp884
(dp885
g12
g46
sg14
S'Courier'
p886
sg16
I700
sg17
g18
sg19
g18
sg20
g627
sg22
g23
sbag7
(g8
g9
NtRp887
(dp888
g12
g46
sg14
S'Courier'
p889
sg16
I500
sg17
g18
sg19
g18
sg20
g628
sg22
g23
sbag7
(g8
g9
NtRp890
(dp891
g12
g18
sg14
S'ITC Avant Garde Gothic'
p892
sg16
I400
sg17
g18
sg19
g18
sg20
g629
sg22
g23
sbag7
(g8
g9
NtRp893
(dp894
g12
g46
sg14
S'Times'
p895
sg16
I500
sg17
g18
sg19
g18
sg20
g630
sg22
g23
sbag7
(g8
g9
NtRp896
(dp897
g12
g46
sg14
S'Helvetica'
p898
sg16
I500
sg17
g18
sg19
g18
sg20
g631
sg22
g23
sbag7
(g8
g9
NtRp899
(dp900
g12
g18
sg14
S'Times'
p901
sg16
I700
sg17
g18
sg19
g18
sg20
g632
sg22
g23
sbag7
(g8
g9
NtRp902
(dp903
g12
g46
sg14
S'Utopia'
p904
sg16
I700
sg17
g18
sg19
g18
sg20
g633
sg22
g23
sbag7
(g8
g9
NtRp905
(dp906
g12
g18
sg14
S'ITC Bookman'
p907
sg16
I200
sg17
g18
sg19
g18
sg20
g634
sg22
g23
sbag7
(g8
g9
NtRp908
(dp909
g12
g18
sg14
S'Courier'
p910
sg16
I700
sg17
g18
sg19
g18
sg20
g635
sg22
g23
sbag7
(g8
g9
NtRp911
(dp912
g12
g18
sg14
S'Computer Modern'
p913
sg16
I500
sg17
g18
sg19
g18
sg20
g636
sg22
g23
sbag7
(g8
g9
NtRp914
(dp915
g12
g46
sg14
S'Times'
p916
sg16
I700
sg17
g18
sg19
g18
sg20
g637
sg22
g23
sbag7
(g8
g9
NtRp917
(dp918
g12
g46
sg14
S'Times'
p919
sg16
I500
sg17
g18
sg19
g18
sg20
g638
sg22
g23
sbag7
(g8
g9
NtRp920
(dp921
g12
g46
sg14
S'ITC Avant Garde Gothic'
p922
sg16
I400
sg17
g18
sg19
g18
sg20
g639
sg22
g23
sbag7
(g8
g9
NtRp923
(dp924
g12
g18
sg14
S'Times'
p925
sg16
I500
sg17
g18
sg19
g18
sg20
g640
sg22
g23
sbag7
(g8
g9
NtRp926
(dp927
g12
g18
sg14
S'Helvetica'
p928
sg16
I500
sg17
g18
sg19
g18
sg20
g641
sg22
g23
sbag7
(g8
g9
NtRp929
(dp930
g12
g18
sg14
S'New Century Schoolbook'
p931
sg16
I700
sg17
g18
sg19
g18
sg20
g642
sg22
g23
sbag7
(g8
g9
NtRp932
(dp933
g12
g18
sg14
S'Helvetica'
p934
sg16
I200
sg17
g18
sg19
g18
sg20
g643
sg22
g23
sbag7
(g8
g9
NtRp935
(dp936
g12
g18
sg14
S'Helvetica'
p937
sg16
I700
sg17
g18
sg19
g18
sg20
g644
sg22
g23
sbag7
(g8
g9
NtRp938
(dp939
g12
g46
sg14
S'Helvetica'
p940
sg16
I700
sg17
g204
sg19
g18
sg20
g645
sg22
g23
sbag7
(g8
g9
NtRp941
(dp942
g12
g18
sg14
S'ITC Avant Garde Gothic'
p943
sg16
I600
sg17
g18
sg19
g18
sg20
g646
sg22
g23
sbag7
(g8
g9
NtRp944
(dp945
g12
g18
sg14
S'Computer Modern'
p946
sg16
I500
sg17
g18
sg19
g18
sg20
g647
sg22
g23
sbag7
(g8
g9
NtRp947
(dp948
g12
g46
sg14
S'New Century Schoolbook'
p949
sg16
I500
sg17
g18
sg19
g18
sg20
g648
sg22
g23
sbag7
(g8
g9
NtRp950
(dp951
g12
g18
sg14
S'Nimbus Roman No9 L'
p952
sg16
I400
sg17
g18
sg19
g18
sg20
g649
sg22
g23
sbag7
(g8
g9
NtRp953
(dp954
g12
g18
sg14
S'CM Roman Greek'
p955
sg16
I700
sg17
g18
sg19
g18
sg20
g650
sg22
g23
sbag7
(g8
g9
NtRp956
(dp957
g12
g18
sg14
S'URW Antiqua T'
p958
sg16
I400
sg17
g204
sg19
g18
sg20
g651
sg22
g23
sbag7
(g8
g9
NtRp959
(dp960
g12
g46
sg14
S'CM Roman CE'
p961
sg16
I700
sg17
g18
sg19
g18
sg20
g652
sg22
g23
sbag7
(g8
g9
NtRp962
(dp963
g12
g18
sg14
S'Nimbus Mono L'
p964
sg16
I700
sg17
g18
sg19
g18
sg20
g653
sg22
g23
sbag7
(g8
g9
NtRp965
(dp966
g12
g18
sg14
S'CM Roman'
p967
sg16
I700
sg17
g18
sg19
g18
sg20
g654
sg22
g23
sbag7
(g8
g9
NtRp968
(dp969
g12
g18
sg14
S'CM Typewriter Cyrillic'
p970
sg16
I400
sg17
g18
sg19
g18
sg20
g655
sg22
g23
sbag7
(g8
g9
NtRp971
(dp972
g12
g18
sg14
S'Nimbus Sans L'
p973
sg16
I400
sg17
g204
sg19
g18
sg20
g656
sg22
g23
sbag7
(g8
g9
NtRp974
(dp975
g12
g18
sg14
S'CM Typewriter Cyrillic'
p976
sg16
I400
sg17
g18
sg19
g18
sg20
g657
sg22
g23
sbag7
(g8
g9
NtRp977
(dp978
g12
g18
sg14
S'Nimbus Sans L'
p979
sg16
I700
sg17
g204
sg19
g18
sg20
g658
sg22
g23
sbag7
(g8
g9
NtRp980
(dp981
g12
g46
sg14
S'CM Sans Greek'
p982
sg16
I400
sg17
g18
sg19
g18
sg20
g659
sg22
g23
sbag7
(g8
g9
NtRp983
(dp984
g12
g18
sg14
S'Nimbus Roman No9 L'
p985
sg16
I700
sg17
g18
sg19
g18
sg20
g660
sg22
g23
sbag7
(g8
g9
NtRp986
(dp987
g12
g18
sg14
S'CM Roman CE'
p988
sg16
I400
sg17
g18
sg19
g18
sg20
g661
sg22
g23
sbag7
(g8
g9
NtRp989
(dp990
g12
g18
sg14
S'CM Roman Asian'
p991
sg16
I400
sg17
g18
sg19
g18
sg20
g662
sg22
g23
sbag7
(g8
g9
NtRp992
(dp993
g12
g46
sg14
S'CM Roman Cyrillic'
p994
sg16
I700
sg17
g18
sg19
g18
sg20
g663
sg22
g23
sbag7
(g8
g9
NtRp995
(dp996
g12
g18
sg14
S'Cyrillic'
p997
sg16
I500
sg17
g18
sg19
g18
sg20
g664
sg22
g23
sbag7
(g8
g9
NtRp998
(dp999
g12
g46
sg14
S'CM Sans Cyrillic'
p1000
sg16
I400
sg17
g18
sg19
g18
sg20
g665
sg22
g23
sbag7
(g8
g9
NtRp1001
(dp1002
g12
g18
sg14
S'CM Roman Asian'
p1003
sg16
I700
sg17
g18
sg19
g18
sg20
g666
sg22
g23
sbag7
(g8
g9
NtRp1004
(dp1005
g12
g18
sg14
S'Nimbus Sans L'
p1006
sg16
I700
sg17
g18
sg19
g18
sg20
g667
sg22
g23
sbag7
(g8
g9
NtRp1007
(dp1008
g12
g18
sg14
S'CM Typewriter Greek'
p1009
sg16
I400
sg17
g18
sg19
g18
sg20
g668
sg22
g23
sbag7
(g8
g9
NtRp1010
(dp1011
g12
g18
sg14
S'CM Typewriter'
p1012
sg16
I400
sg17
g18
sg19
g18
sg20
g669
sg22
g23
sbag7
(g8
g9
NtRp1013
(dp1014
g12
g18
sg14
S'CM Sans Cyrillic'
p1015
sg16
I400
sg17
g18
sg19
g18
sg20
g670
sg22
g23
sbag7
(g8
g9
NtRp1016
(dp1017
g12
g46
sg14
S'URW Gothic L'
p1018
sg16
I400
sg17
g18
sg19
g18
sg20
g671
sg22
g23
sbag7
(g8
g9
NtRp1019
(dp1020
g12
g46
sg14
S'CM Roman Greek'
p1021
sg16
I400
sg17
g18
sg19
g18
sg20
g672
sg22
g23
sbag7
(g8
g9
NtRp1022
(dp1023
g12
g46
sg14
S'CM Roman CE'
p1024
sg16
I700
sg17
g18
sg19
g18
sg20
g673
sg22
g23
sbag7
(g8
g9
NtRp1025
(dp1026
g12
g18
sg14
S'CM Sans CE'
p1027
sg16
I400
sg17
g18
sg19
g18
sg20
g674
sg22
g23
sbag7
(g8
g9
NtRp1028
(dp1029
g12
g46
sg14
S'Nimbus Roman No9 L'
p1030
sg16
I400
sg17
g18
sg19
g18
sg20
g675
sg22
g23
sbag7
(g8
g9
NtRp1031
(dp1032
g12
g46
sg14
S'URW Bookman L'
p1033
sg16
I400
sg17
g18
sg19
g18
sg20
g676
sg22
g23
sbag7
(g8
g9
NtRp1034
(dp1035
g12
g46
sg14
S'CM Typewriter Greek'
p1036
sg16
I400
sg17
g18
sg19
g18
sg20
g677
sg22
g23
sbag7
(g8
g9
NtRp1037
(dp1038
g12
g46
sg14
S'CM Roman CE'
p1039
sg16
I400
sg17
g18
sg19
g18
sg20
g678
sg22
g23
sbag7
(g8
g9
NtRp1040
(dp1041
g12
g18
sg14
S'CM Roman Greek'
p1042
sg16
I700
sg17
g18
sg19
g18
sg20
g679
sg22
g23
sbag7
(g8
g9
NtRp1043
(dp1044
g12
g46
sg14
S'CM Roman CE'
p1045
sg16
I400
sg17
g18
sg19
g18
sg20
g680
sg22
g23
sbag7
(g8
g9
NtRp1046
(dp1047
g12
g46
sg14
S'CM Typewriter Asian'
p1048
sg16
I400
sg17
g18
sg19
g18
sg20
g681
sg22
g23
sbag7
(g8
g9
NtRp1049
(dp1050
g12
g18
sg14
S'CM Typewriter Asian'
p1051
sg16
I400
sg17
g18
sg19
g18
sg20
g682
sg22
g23
sbag7
(g8
g9
NtRp1052
(dp1053
g12
g46
sg14
S'CM Typewriter CE'
p1054
sg16
I400
sg17
g18
sg19
g18
sg20
g683
sg22
g23
sbag7
(g8
g9
NtRp1055
(dp1056
g12
g18
sg14
S'CM Roman Cyrillic'
p1057
sg16
I700
sg17
g18
sg19
g18
sg20
g684
sg22
g23
sbag7
(g8
g9
NtRp1058
(dp1059
g12
g46
sg14
S'CM Typewriter'
p1060
sg16
I400
sg17
g18
sg19
g18
sg20
g685
sg22
g23
sbag7
(g8
g9
NtRp1061
(dp1062
g12
g18
sg14
S'CM Typewriter CE'
p1063
sg16
I400
sg17
g18
sg19
g18
sg20
g686
sg22
g23
sbag7
(g8
g9
NtRp1064
(dp1065
g12
g18
sg14
S'CM Roman Cyrillic'
p1066
sg16
I400
sg17
g18
sg19
g18
sg20
g687
sg22
g23
sbag7
(g8
g9
NtRp1067
(dp1068
g12
g18
sg14
S'CM Roman Asian'
p1069
sg16
I400
sg17
g18
sg19
g18
sg20
g688
sg22
g23
sbag7
(g8
g9
NtRp1070
(dp1071
g12
g46
sg14
S'URW Gothic L'
p1072
sg16
I600
sg17
g18
sg19
g18
sg20
g689
sg22
g23
sbag7
(g8
g9
NtRp1073
(dp1074
g12
g46
sg14
S'CM Typewriter Cyrillic'
p1075
sg16
I400
sg17
g18
sg19
g18
sg20
g690
sg22
g23
sbag7
(g8
g9
NtRp1076
(dp1077
g12
g46
sg14
S'Century Schoolbook L'
p1078
sg16
I700
sg17
g18
sg19
g18
sg20
g691
sg22
g23
sbag7
(g8
g9
NtRp1079
(dp1080
g12
g18
sg14
S'URW Bookman L'
p1081
sg16
I400
sg17
g18
sg19
g18
sg20
g692
sg22
g23
sbag7
(g8
g9
NtRp1082
(dp1083
g12
g18
sg14
S'CM Typewriter'
p1084
sg16
I400
sg17
g18
sg19
g18
sg20
g693
sg22
g23
sbag7
(g8
g9
NtRp1085
(dp1086
g12
g18
sg14
S'Dingbats'
p1087
sg16
I400
sg17
g18
sg19
g18
sg20
g694
sg22
g23
sbag7
(g8
g9
NtRp1088
(dp1089
g12
g46
sg14
S'CM Roman Greek'
p1090
sg16
I700
sg17
g18
sg19
g18
sg20
g695
sg22
g23
sbag7
(g8
g9
NtRp1091
(dp1092
g12
g46
sg14
S'CM Roman Cyrillic'
p1093
sg16
I400
sg17
g18
sg19
g18
sg20
g696
sg22
g23
sbag7
(g8
g9
NtRp1094
(dp1095
g12
g18
sg14
S'URW Gothic L'
p1096
sg16
I600
sg17
g18
sg19
g18
sg20
g697
sg22
g23
sbag7
(g8
g9
NtRp1097
(dp1098
g12
g46
sg14
S'CM Roman Cyrillic'
p1099
sg16
I700
sg17
g18
sg19
g18
sg20
g698
sg22
g23
sbag7
(g8
g9
NtRp1100
(dp1101
g12
g18
sg14
S'URW Bookman L'
p1102
sg16
I700
sg17
g18
sg19
g18
sg20
g699
sg22
g23
sbag7
(g8
g9
NtRp1103
(dp1104
g12
g46
sg14
S'CM Roman Asian'
p1105
sg16
I700
sg17
g18
sg19
g18
sg20
g700
sg22
g23
sbag7
(g8
g9
NtRp1106
(dp1107
g12
g46
sg14
S'Cyrillic'
p1108
sg16
I500
sg17
g18
sg19
g18
sg20
g701
sg22
g23
sbag7
(g8
g9
NtRp1109
(dp1110
g12
g46
sg14
S'URW Palladio L'
p1111
sg16
I700
sg17
g18
sg19
g18
sg20
g702
sg22
g23
sbag7
(g8
g9
NtRp1112
(dp1113
g12
g18
sg14
S'CM Sans Greek'
p1114
sg16
I700
sg17
g18
sg19
g18
sg20
g703
sg22
g23
sbag7
(g8
g9
NtRp1115
(dp1116
g12
g18
sg14
S'URW Palladio L'
p1117
sg16
I500
sg17
g18
sg19
g18
sg20
g704
sg22
g23
sbag7
(g8
g9
NtRp1118
(dp1119
g12
g46
sg14
S'CM Roman'
p1120
sg16
I400
sg17
g18
sg19
g18
sg20
g705
sg22
g23
sbag7
(g8
g9
NtRp1121
(dp1122
g12
g18
sg14
S'CM Typewriter CE'
p1123
sg16
I400
sg17
g18
sg19
g18
sg20
g706
sg22
g23
sbag7
(g8
g9
NtRp1124
(dp1125
g12
g18
sg14
S'URW Palladio L'
p1126
sg16
I700
sg17
g18
sg19
g18
sg20
g707
sg22
g23
sbag7
(g8
g9
NtRp1127
(dp1128
g12
g18
sg14
S'CM Roman Greek'
p1129
sg16
I400
sg17
g18
sg19
g18
sg20
g708
sg22
g23
sbag7
(g8
g9
NtRp1130
(dp1131
g12
g46
sg14
S'Nimbus Sans L'
p1132
sg16
I400
sg17
g18
sg19
g18
sg20
g709
sg22
g23
sbag7
(g8
g9
NtRp1133
(dp1134
g12
g46
sg14
S'CM Sans Asian'
p1135
sg16
I700
sg17
g18
sg19
g18
sg20
g710
sg22
g23
sbag7
(g8
g9
NtRp1136
(dp1137
g12
g46
sg14
S'CM Sans'
p1138
sg16
I400
sg17
g18
sg19
g18
sg20
g711
sg22
g23
sbag7
(g8
g9
NtRp1139
(dp1140
g12
g46
sg14
S'Nimbus Sans L'
p1141
sg16
I400
sg17
g204
sg19
g18
sg20
g712
sg22
g23
sbag7
(g8
g9
NtRp1142
(dp1143
g12
g18
sg14
S'CM Roman Cyrillic'
p1144
sg16
I400
sg17
g18
sg19
g18
sg20
g713
sg22
g23
sbag7
(g8
g9
NtRp1145
(dp1146
g12
g18
sg14
S'CM Sans Cyrillic'
p1147
sg16
I700
sg17
g18
sg19
g18
sg20
g714
sg22
g23
sbag7
(g8
g9
NtRp1148
(dp1149
g12
g46
sg14
S'CM Sans Asian'
p1150
sg16
I400
sg17
g18
sg19
g18
sg20
g715
sg22
g23
sbag7
(g8
g9
NtRp1151
(dp1152
g12
g18
sg14
S'CM Roman CE'
p1153
sg16
I400
sg17
g18
sg19
g18
sg20
g716
sg22
g23
sbag7
(g8
g9
NtRp1154
(dp1155
g12
g46
sg14
S'CM Roman Asian'
p1156
sg16
I400
sg17
g18
sg19
g18
sg20
g717
sg22
g23
sbag7
(g8
g9
NtRp1157
(dp1158
g12
g46
sg14
S'CM Roman'
p1159
sg16
I700
sg17
g18
sg19
g18
sg20
g718
sg22
g23
sbag7
(g8
g9
NtRp1160
(dp1161
g12
g18
sg14
S'URW Gothic L'
p1162
sg16
I400
sg17
g18
sg19
g18
sg20
g719
sg22
g23
sbag7
(g8
g9
NtRp1163
(dp1164
g12
g18
sg14
S'Standard Symbols L'
p1165
sg16
I400
sg17
g18
sg19
g18
sg20
g720
sg22
g23
sbag7
(g8
g9
NtRp1166
(dp1167
g12
g46
sg14
S'CM Roman'
p1168
sg16
I700
sg17
g18
sg19
g18
sg20
g721
sg22
g23
sbag7
(g8
g9
NtRp1169
(dp1170
g12
g18
sg14
S'CM Roman CE'
p1171
sg16
I700
sg17
g18
sg19
g18
sg20
g722
sg22
g23
sbag7
(g8
g9
NtRp1172
(dp1173
g12
g46
sg14
S'CM Roman Greek'
p1174
sg16
I400
sg17
g18
sg19
g18
sg20
g723
sg22
g23
sbag7
(g8
g9
NtRp1175
(dp1176
g12
g46
sg14
S'CM Typewriter Cyrillic'
p1177
sg16
I400
sg17
g18
sg19
g18
sg20
g724
sg22
g23
sbag7
(g8
g9
NtRp1178
(dp1179
g12
g46
sg14
S'CM Roman Greek'
p1180
sg16
I700
sg17
g18
sg19
g18
sg20
g725
sg22
g23
sbag7
(g8
g9
NtRp1181
(dp1182
g12
g46
sg14
S'Nimbus Mono L'
p1183
sg16
I700
sg17
g18
sg19
g18
sg20
g726
sg22
g23
sbag7
(g8
g9
NtRp1184
(dp1185
g12
g46
sg14
S'CM Roman Asian'
p1186
sg16
I400
sg17
g18
sg19
g18
sg20
g727
sg22
g23
sbag7
(g8
g9
NtRp1187
(dp1188
g12
g46
sg14
S'Century Schoolbook L'
p1189
sg16
I400
sg17
g18
sg19
g18
sg20
g728
sg22
g23
sbag7
(g8
g9
NtRp1190
(dp1191
g12
g18
sg14
S'CM Sans'
p1192
sg16
I400
sg17
g18
sg19
g18
sg20
g729
sg22
g23
sbag7
(g8
g9
NtRp1193
(dp1194
g12
g18
sg14
S'URW Grotesk T'
p1195
sg16
I400
sg17
g18
sg19
g18
sg20
g730
sg22
g23
sbag7
(g8
g9
NtRp1196
(dp1197
g12
g18
sg14
S'CM Typewriter Asian'
p1198
sg16
I400
sg17
g18
sg19
g18
sg20
g731
sg22
g23
sbag7
(g8
g9
NtRp1199
(dp1200
g12
g18
sg14
S'CM Roman Asian'
p1201
sg16
I700
sg17
g18
sg19
g18
sg20
g732
sg22
g23
sbag7
(g8
g9
NtRp1202
(dp1203
g12
g18
sg14
S'Century Schoolbook L'
p1204
sg16
I700
sg17
g18
sg19
g18
sg20
g733
sg22
g23
sbag7
(g8
g9
NtRp1205
(dp1206
g12
g46
sg14
S'CM Sans'
p1207
sg16
I700
sg17
g18
sg19
g18
sg20
g734
sg22
g23
sbag7
(g8
g9
NtRp1208
(dp1209
g12
g18
sg14
S'CM Typewriter Greek'
p1210
sg16
I400
sg17
g18
sg19
g18
sg20
g735
sg22
g23
sbag7
(g8
g9
NtRp1211
(dp1212
g12
g18
sg14
S'CM Roman'
p1213
sg16
I400
sg17
g18
sg19
g18
sg20
g736
sg22
g23
sbag7
(g8
g9
NtRp1214
(dp1215
g12
g46
sg14
S'CM Sans Cyrillic'
p1216
sg16
I700
sg17
g18
sg19
g18
sg20
g737
sg22
g23
sbag7
(g8
g9
NtRp1217
(dp1218
g12
g18
sg14
S'Nimbus Sans L'
p1219
sg16
I400
sg17
g18
sg19
g18
sg20
g738
sg22
g23
sbag7
(g8
g9
NtRp1220
(dp1221
g12
g46
sg14
S'URW Bookman L'
p1222
sg16
I700
sg17
g18
sg19
g18
sg20
g739
sg22
g23
sbag7
(g8
g9
NtRp1223
(dp1224
g12
g46
sg14
S'CM Sans Greek'
p1225
sg16
I700
sg17
g18
sg19
g18
sg20
g740
sg22
g23
sbag7
(g8
g9
NtRp1226
(dp1227
g12
g46
sg14
S'CM Typewriter CE'
p1228
sg16
I400
sg17
g18
sg19
g18
sg20
g741
sg22
g23
sbag7
(g8
g9
NtRp1229
(dp1230
g12
g46
sg14
S'Nimbus Mono L'
p1231
sg16
I400
sg17
g18
sg19
g18
sg20
g742
sg22
g23
sbag7
(g8
g9
NtRp1232
(dp1233
g12
g46
sg14
S'CM Typewriter'
p1234
sg16
I400
sg17
g18
sg19
g18
sg20
g743
sg22
g23
sbag7
(g8
g9
NtRp1235
(dp1236
g12
g18
sg14
S'CM Sans Asian'
p1237
sg16
I700
sg17
g18
sg19
g18
sg20
g744
sg22
g23
sbag7
(g8
g9
NtRp1238
(dp1239
g12
g46
sg14
S'Nimbus Roman No9 L'
p1240
sg16
I700
sg17
g18
sg19
g18
sg20
g745
sg22
g23
sbag7
(g8
g9
NtRp1241
(dp1242
g12
g18
sg14
S'CM Roman'
p1243
sg16
I700
sg17
g18
sg19
g18
sg20
g746
sg22
g23
sbag7
(g8
g9
NtRp1244
(dp1245
g12
g18
sg14
S'Nimbus Mono L'
p1246
sg16
I400
sg17
g18
sg19
g18
sg20
g747
sg22
g23
sbag7
(g8
g9
NtRp1247
(dp1248
g12
g46
sg14
S'Nimbus Sans L'
p1249
sg16
I700
sg17
g204
sg19
g18
sg20
g748
sg22
g23
sbag7
(g8
g9
NtRp1250
(dp1251
g12
g46
sg14
S'CM Roman'
p1252
sg16
I400
sg17
g18
sg19
g18
sg20
g749
sg22
g23
sbag7
(g8
g9
NtRp1253
(dp1254
g12
g46
sg14
S'CM Roman Cyrillic'
p1255
sg16
I400
sg17
g18
sg19
g18
sg20
g750
sg22
g23
sbag7
(g8
g9
NtRp1256
(dp1257
g12
g18
sg14
S'CM Roman Cyrillic'
p1258
sg16
I700
sg17
g18
sg19
g18
sg20
g751
sg22
g23
sbag7
(g8
g9
NtRp1259
(dp1260
g12
g18
sg14
S'CM Roman Greek'
p1261
sg16
I400
sg17
g18
sg19
g18
sg20
g752
sg22
g23
sbag7
(g8
g9
NtRp1262
(dp1263
g12
g46
sg14
S'Nimbus Sans L'
p1264
sg16
I700
sg17
g18
sg19
g18
sg20
g753
sg22
g23
sbag7
(g8
g9
NtRp1265
(dp1266
g12
g18
sg14
S'CM Sans CE'
p1267
sg16
I700
sg17
g18
sg19
g18
sg20
g754
sg22
g23
sbag7
(g8
g9
NtRp1268
(dp1269
g12
g18
sg14
S'CM Sans Greek'
p1270
sg16
I400
sg17
g18
sg19
g18
sg20
g755
sg22
g23
sbag7
(g8
g9
NtRp1271
(dp1272
g12
g18
sg14
S'CM Sans Asian'
p1273
sg16
I400
sg17
g18
sg19
g18
sg20
g756
sg22
g23
sbag7
(g8
g9
NtRp1274
(dp1275
g12
g46
sg14
S'URW Chancery L'
p1276
sg16
I500
sg17
g18
sg19
g18
sg20
g757
sg22
g23
sbag7
(g8
g9
NtRp1277
(dp1278
g12
g46
sg14
S'CM Typewriter Asian'
p1279
sg16
I400
sg17
g18
sg19
g18
sg20
g758
sg22
g23
sbag7
(g8
g9
NtRp1280
(dp1281
g12
g46
sg14
S'CM Roman Asian'
p1282
sg16
I700
sg17
g18
sg19
g18
sg20
g759
sg22
g23
sbag7
(g8
g9
NtRp1283
(dp1284
g12
g18
sg14
S'CM Sans'
p1285
sg16
I700
sg17
g18
sg19
g18
sg20
g760
sg22
g23
sbag7
(g8
g9
NtRp1286
(dp1287
g12
g46
sg14
S'CM Sans CE'
p1288
sg16
I700
sg17
g18
sg19
g18
sg20
g761
sg22
g23
sbag7
(g8
g9
NtRp1289
(dp1290
g12
g46
sg14
S'CM Typewriter Greek'
p1291
sg16
I400
sg17
g18
sg19
g18
sg20
g762
sg22
g23
sbag7
(g8
g9
NtRp1292
(dp1293
g12
g18
sg14
S'Century Schoolbook L'
p1294
sg16
I500
sg17
g18
sg19
g18
sg20
g763
sg22
g23
sbag7
(g8
g9
NtRp1295
(dp1296
g12
g18
sg14
S'CM Roman'
p1297
sg16
I400
sg17
g18
sg19
g18
sg20
g764
sg22
g23
sbag7
(g8
g9
NtRp1298
(dp1299
g12
g46
sg14
S'CM Sans CE'
p1300
sg16
I400
sg17
g18
sg19
g18
sg20
g765
sg22
g23
sbag7
(g8
g9
NtRp1301
(dp1302
g12
g46
sg14
S'URW Palladio L'
p1303
sg16
I400
sg17
g18
sg19
g18
sg20
g766
sg22
g23
sbag7
(g8
g9
NtRp1304
(dp1305
g12
g18
sg14
S'CM Roman CE'
p1306
sg16
I700
sg17
g18
sg19
g18
sg20
g767
sg22
g23
sbasb.